target datalayout = "e-m:e-p270:32:32-p271:32:32-p272:64:64-i64:64-i128:128-f80:128-n8:16:32:64-S128"
target triple = "x86_64-pc-linux-gnu"

%struct.ident_t = type { i32, i32, i32, i32, ptr }
%"struct.faiss::BitstringWriter" = type { ptr, i64, i64 }

@1 = private unnamed_addr constant %struct.ident_t { i32 0, i32 514, i32 0, i32 22, ptr @0 }, align 8

; Function Attrs: noinline noreturn nounwind uwtable
define linkonce_odr hidden void @__clang_call_terminate(ptr noundef %0) #9 comdat {
  %2 = call ptr @__cxa_begin_catch(ptr %0) #7
  call void @_ZSt9terminatev() #20
  unreachable
}

; Function Attrs: inlinehint mustprogress nounwind uwtable
define linkonce_odr void @_ZN5faiss15BitstringWriter5writeEmi(ptr noundef nonnull align 8 dereferenceable(24) %0, i64 noundef %1, i32 noundef %2) #3 comdat align 2 {
  %4 = alloca ptr, align 8
  %5 = alloca i64, align 8
  %6 = alloca i32, align 4
  %7 = alloca i32, align 4
  %8 = alloca i32, align 4
  %9 = alloca i64, align 8
  store ptr %0, ptr %4, align 8, !tbaa !923
  store i64 %1, ptr %5, align 8, !tbaa !9
  store i32 %2, ptr %6, align 4, !tbaa !13
  %10 = load ptr, ptr %4, align 8
  call void @llvm.lifetime.start.p0(i64 4, ptr %7) #7
  %11 = getelementptr inbounds nuw %"struct.faiss::BitstringWriter", ptr %10, i32 0, i32 2
  %12 = load i64, ptr %11, align 8, !tbaa !928
  %13 = and i64 %12, 7
  %14 = sub i64 8, %13
  %15 = trunc i64 %14 to i32
  store i32 %15, ptr %7, align 4, !tbaa !13
  %16 = load i32, ptr %6, align 4, !tbaa !13
  %17 = load i32, ptr %7, align 4, !tbaa !13
  %18 = icmp sle i32 %16, %17
  br i1 %18, label %19, label %40

19:                                               ; preds = %3
  %20 = load i64, ptr %5, align 8, !tbaa !9
  %21 = getelementptr inbounds nuw %"struct.faiss::BitstringWriter", ptr %10, i32 0, i32 2
  %22 = load i64, ptr %21, align 8, !tbaa !928
  %23 = and i64 %22, 7
  %24 = shl i64 %20, %23
  %25 = getelementptr inbounds nuw %"struct.faiss::BitstringWriter", ptr %10, i32 0, i32 0
  %26 = load ptr, ptr %25, align 8, !tbaa !925
  %27 = getelementptr inbounds nuw %"struct.faiss::BitstringWriter", ptr %10, i32 0, i32 2
  %28 = load i64, ptr %27, align 8, !tbaa !928
  %29 = lshr i64 %28, 3
  %30 = getelementptr inbounds nuw i8, ptr %26, i64 %29
  %31 = load i8, ptr %30, align 1, !tbaa !23
  %32 = zext i8 %31 to i64
  %33 = or i64 %32, %24
  %34 = trunc i64 %33 to i8
  store i8 %34, ptr %30, align 1, !tbaa !23
  %35 = load i32, ptr %6, align 4, !tbaa !13
  %36 = sext i32 %35 to i64
  %37 = getelementptr inbounds nuw %"struct.faiss::BitstringWriter", ptr %10, i32 0, i32 2
  %38 = load i64, ptr %37, align 8, !tbaa !928
  %39 = add i64 %38, %36
  store i64 %39, ptr %37, align 8, !tbaa !928
  store i32 1, ptr %8, align 4
  br label %85

40:                                               ; preds = %3
  call void @llvm.lifetime.start.p0(i64 8, ptr %9) #7
  %41 = getelementptr inbounds nuw %"struct.faiss::BitstringWriter", ptr %10, i32 0, i32 2
  %42 = load i64, ptr %41, align 8, !tbaa !928
  %43 = lshr i64 %42, 3
  store i64 %43, ptr %9, align 8, !tbaa !9
  %44 = load i64, ptr %5, align 8, !tbaa !9
  %45 = getelementptr inbounds nuw %"struct.faiss::BitstringWriter", ptr %10, i32 0, i32 2
  %46 = load i64, ptr %45, align 8, !tbaa !928
  %47 = and i64 %46, 7
  %48 = shl i64 %44, %47
  %49 = getelementptr inbounds nuw %"struct.faiss::BitstringWriter", ptr %10, i32 0, i32 0
  %50 = load ptr, ptr %49, align 8, !tbaa !925
  %51 = load i64, ptr %9, align 8, !tbaa !9
  %52 = add i64 %51, 1
  store i64 %52, ptr %9, align 8, !tbaa !9
  %53 = getelementptr inbounds nuw i8, ptr %50, i64 %51
  %54 = load i8, ptr %53, align 1, !tbaa !23
  %55 = zext i8 %54 to i64
  %56 = or i64 %55, %48
  %57 = trunc i64 %56 to i8
  store i8 %57, ptr %53, align 1, !tbaa !23
  %58 = load i32, ptr %6, align 4, !tbaa !13
  %59 = sext i32 %58 to i64
  %60 = getelementptr inbounds nuw %"struct.faiss::BitstringWriter", ptr %10, i32 0, i32 2
  %61 = load i64, ptr %60, align 8, !tbaa !928
  %62 = add i64 %61, %59
  store i64 %62, ptr %60, align 8, !tbaa !928
  %63 = load i32, ptr %7, align 4, !tbaa !13
  %64 = load i64, ptr %5, align 8, !tbaa !9
  %65 = zext i32 %63 to i64
  %66 = lshr i64 %64, %65
  store i64 %66, ptr %5, align 8, !tbaa !9
  br label %67

67:                                               ; preds = %70, %40
  %68 = load i64, ptr %5, align 8, !tbaa !9
  %69 = icmp ne i64 %68, 0
  br i1 %69, label %70, label %83

70:                                               ; preds = %67
  %71 = load i64, ptr %5, align 8, !tbaa !9
  %72 = getelementptr inbounds nuw %"struct.faiss::BitstringWriter", ptr %10, i32 0, i32 0
  %73 = load ptr, ptr %72, align 8, !tbaa !925
  %74 = load i64, ptr %9, align 8, !tbaa !9
  %75 = add i64 %74, 1
  store i64 %75, ptr %9, align 8, !tbaa !9
  %76 = getelementptr inbounds nuw i8, ptr %73, i64 %74
  %77 = load i8, ptr %76, align 1, !tbaa !23
  %78 = zext i8 %77 to i64
  %79 = or i64 %78, %71
  %80 = trunc i64 %79 to i8
  store i8 %80, ptr %76, align 1, !tbaa !23
  %81 = load i64, ptr %5, align 8, !tbaa !9
  %82 = lshr i64 %81, 8
  store i64 %82, ptr %5, align 8, !tbaa !9
  br label %67, !llvm.loop !929

83:                                               ; preds = %67
  call void @llvm.lifetime.end.p0(i64 8, ptr %9) #7
  br label %84

84:                                               ; preds = %83
  store i32 0, ptr %8, align 4
  br label %85

85:                                               ; preds = %84, %19
  call void @llvm.lifetime.end.p0(i64 4, ptr %7) #7
  %86 = load i32, ptr %8, align 4
  switch i32 %86, label %88 [
    i32 0, label %87
    i32 1, label %87
  ]

87:                                               ; preds = %85, %85
  ret void

88:                                               ; preds = %85
  unreachable
}

; Function Attrs: inlinehint mustprogress nounwind uwtable
define linkonce_odr void @_ZN5faiss15BitstringWriterC2EPhm(ptr noundef nonnull align 8 dereferenceable(24) %0, ptr noundef %1, i64 noundef %2) unnamed_addr #3 comdat align 2 {
  %4 = alloca ptr, align 8
  %5 = alloca ptr, align 8
  %6 = alloca i64, align 8
  store ptr %0, ptr %4, align 8, !tbaa !923
  store ptr %1, ptr %5, align 8, !tbaa !21
  store i64 %2, ptr %6, align 8, !tbaa !9
  %7 = load ptr, ptr %4, align 8
  %8 = getelementptr inbounds nuw %"struct.faiss::BitstringWriter", ptr %7, i32 0, i32 0
  %9 = load ptr, ptr %5, align 8, !tbaa !21
  store ptr %9, ptr %8, align 8, !tbaa !925
  %10 = getelementptr inbounds nuw %"struct.faiss::BitstringWriter", ptr %7, i32 0, i32 1
  %11 = load i64, ptr %6, align 8, !tbaa !9
  store i64 %11, ptr %10, align 8, !tbaa !927
  %12 = getelementptr inbounds nuw %"struct.faiss::BitstringWriter", ptr %7, i32 0, i32 2
  store i64 0, ptr %12, align 8, !tbaa !928
  %13 = load ptr, ptr %5, align 8, !tbaa !21
  %14 = load i64, ptr %6, align 8, !tbaa !9
  call void @llvm.memset.p0.i64(ptr align 1 %13, i8 0, i64 %14, i1 false)
  ret void
}

; Function Attrs: noinline norecurse nounwind uwtable
define internal void @_ZN5faiss15pack_bitstringsEmmiPKiPhm.omp_outlined(ptr noalias noundef %0, ptr noalias noundef %1, ptr noundef nonnull align 8 dereferenceable(8) %2, ptr noundef nonnull align 8 dereferenceable(8) %3, ptr noundef nonnull align 8 dereferenceable(8) %4, ptr noundef nonnull align 8 dereferenceable(8) %5, ptr noundef nonnull align 8 dereferenceable(8) %6, ptr noundef nonnull align 4 dereferenceable(4) %7) #6 personality ptr @__gxx_personality_v0 {
  %9 = alloca ptr, align 8
  %10 = alloca ptr, align 8
  %11 = alloca ptr, align 8
  %12 = alloca ptr, align 8
  %13 = alloca ptr, align 8
  %14 = alloca ptr, align 8
  %15 = alloca ptr, align 8
  %16 = alloca ptr, align 8
  %17 = alloca i64, align 8
  %18 = alloca i64, align 8
  %19 = alloca i64, align 8
  %20 = alloca i64, align 8
  %21 = alloca i64, align 8
  %22 = alloca i64, align 8
  %23 = alloca i64, align 8
  %24 = alloca i32, align 4
  %25 = alloca i64, align 8
  %26 = alloca ptr, align 8
  %27 = alloca ptr, align 8
  %28 = alloca %"struct.faiss::BitstringWriter", align 8
  %29 = alloca i32, align 4
  store ptr %0, ptr %9, align 8, !tbaa !11
  store ptr %1, ptr %10, align 8, !tbaa !11
  store ptr %2, ptr %11, align 8, !tbaa !4
  store ptr %3, ptr %12, align 8, !tbaa !47
  store ptr %4, ptr %13, align 8, !tbaa !4
  store ptr %5, ptr %14, align 8, !tbaa !30
  store ptr %6, ptr %15, align 8, !tbaa !4
  store ptr %7, ptr %16, align 8, !tbaa !11
  %30 = load ptr, ptr %11, align 8, !tbaa !4
  %31 = load ptr, ptr %12, align 8, !tbaa !47
  %32 = load ptr, ptr %13, align 8, !tbaa !4
  %33 = load ptr, ptr %14, align 8, !tbaa !30
  %34 = load ptr, ptr %15, align 8, !tbaa !4
  %35 = load ptr, ptr %16, align 8, !tbaa !11
  call void @llvm.lifetime.start.p0(i64 8, ptr %17) #7
  call void @llvm.lifetime.start.p0(i64 8, ptr %18) #7
  %36 = load i64, ptr %30, align 8, !tbaa !9
  store i64 %36, ptr %18, align 8, !tbaa !9
  call void @llvm.lifetime.start.p0(i64 8, ptr %19) #7
  %37 = load i64, ptr %18, align 8, !tbaa !9
  %38 = sub i64 %37, 0
  %39 = udiv i64 %38, 1
  %40 = sub i64 %39, 1
  store i64 %40, ptr %19, align 8, !tbaa !9
  call void @llvm.lifetime.start.p0(i64 8, ptr %20) #7
  store i64 0, ptr %20, align 8, !tbaa !9
  call void @llvm.lifetime.end.p0(i64 8, ptr %20) #7
  %41 = load i64, ptr %18, align 8, !tbaa !9
  %42 = icmp ult i64 0, %41
  br i1 %42, label %43, label %107

43:                                               ; preds = %8
  call void @llvm.lifetime.start.p0(i64 8, ptr %21) #7
  store i64 0, ptr %21, align 8, !tbaa !9
  call void @llvm.lifetime.start.p0(i64 8, ptr %22) #7
  %44 = load i64, ptr %19, align 8, !tbaa !9
  store i64 %44, ptr %22, align 8, !tbaa !9
  call void @llvm.lifetime.start.p0(i64 8, ptr %23) #7
  store i64 1, ptr %23, align 8, !tbaa !9
  call void @llvm.lifetime.start.p0(i64 4, ptr %24) #7
  store i32 0, ptr %24, align 4, !tbaa !13
  call void @llvm.lifetime.start.p0(i64 8, ptr %25) #7
  %45 = load ptr, ptr %9, align 8
  %46 = load i32, ptr %45, align 4, !tbaa !13
  call void @__kmpc_for_static_init_8u(ptr @1, i32 %46, i32 34, ptr %24, ptr %21, ptr %22, ptr %23, i64 1, i64 1)
  %47 = load i64, ptr %22, align 8, !tbaa !9
  %48 = load i64, ptr %19, align 8, !tbaa !9
  %49 = icmp ugt i64 %47, %48
  br i1 %49, label %50, label %52

50:                                               ; preds = %43
  %51 = load i64, ptr %19, align 8, !tbaa !9
  br label %54

52:                                               ; preds = %43
  %53 = load i64, ptr %22, align 8, !tbaa !9
  br label %54

54:                                               ; preds = %52, %50
  %55 = phi i64 [ %51, %50 ], [ %53, %52 ]
  store i64 %55, ptr %22, align 8, !tbaa !9
  %56 = load i64, ptr %21, align 8, !tbaa !9
  store i64 %56, ptr %17, align 8, !tbaa !9
  br label %57

57:                                               ; preds = %100, %54
  %58 = load i64, ptr %17, align 8, !tbaa !9
  %59 = load i64, ptr %22, align 8, !tbaa !9
  %60 = add i64 %59, 1
  %61 = icmp ult i64 %58, %60
  br i1 %61, label %63, label %62

62:                                               ; preds = %57
  br label %103

63:                                               ; preds = %57
  %64 = load i64, ptr %17, align 8, !tbaa !9
  %65 = mul i64 %64, 1
  %66 = add i64 0, %65
  store i64 %66, ptr %25, align 8, !tbaa !9
  call void @llvm.lifetime.start.p0(i64 8, ptr %26) #7
  %67 = load ptr, ptr %31, align 8, !tbaa !11
  %68 = load i64, ptr %25, align 8, !tbaa !9
  %69 = load i64, ptr %32, align 8, !tbaa !9
  %70 = mul i64 %68, %69
  %71 = getelementptr inbounds nuw i32, ptr %67, i64 %70
  store ptr %71, ptr %26, align 8, !tbaa !11
  call void @llvm.lifetime.start.p0(i64 8, ptr %27) #7
  %72 = load ptr, ptr %33, align 8, !tbaa !21
  %73 = load i64, ptr %25, align 8, !tbaa !9
  %74 = load i64, ptr %34, align 8, !tbaa !9
  %75 = mul i64 %73, %74
  %76 = getelementptr inbounds nuw i8, ptr %72, i64 %75
  store ptr %76, ptr %27, align 8, !tbaa !21
  call void @llvm.lifetime.start.p0(i64 24, ptr %28) #7
  %77 = load ptr, ptr %27, align 8, !tbaa !21
  %78 = load i64, ptr %34, align 8, !tbaa !9
  invoke void @_ZN5faiss15BitstringWriterC2EPhm(ptr noundef nonnull align 8 dereferenceable(24) %28, ptr noundef %77, i64 noundef %78)
          to label %79 unwind label %108

79:                                               ; preds = %63
  call void @llvm.lifetime.start.p0(i64 4, ptr %29) #7
  store i32 0, ptr %29, align 4, !tbaa !13
  br label %80

80:                                               ; preds = %95, %79
  %81 = load i32, ptr %29, align 4, !tbaa !13
  %82 = sext i32 %81 to i64
  %83 = load i64, ptr %32, align 8, !tbaa !9
  %84 = icmp ult i64 %82, %83
  br i1 %84, label %86, label %85

85:                                               ; preds = %80
  call void @llvm.lifetime.end.p0(i64 4, ptr %29) #7
  br label %98

86:                                               ; preds = %80
  %87 = load ptr, ptr %26, align 8, !tbaa !11
  %88 = load i32, ptr %29, align 4, !tbaa !13
  %89 = sext i32 %88 to i64
  %90 = getelementptr inbounds i32, ptr %87, i64 %89
  %91 = load i32, ptr %90, align 4, !tbaa !13
  %92 = sext i32 %91 to i64
  %93 = load i32, ptr %35, align 4, !tbaa !13
  invoke void @_ZN5faiss15BitstringWriter5writeEmi(ptr noundef nonnull align 8 dereferenceable(24) %28, i64 noundef %92, i32 noundef %93)
          to label %94 unwind label %108

94:                                               ; preds = %86
  br label %95

95:                                               ; preds = %94
  %96 = load i32, ptr %29, align 4, !tbaa !13
  %97 = add nsw i32 %96, 1
  store i32 %97, ptr %29, align 4, !tbaa !13
  br label %80, !llvm.loop !922

98:                                               ; preds = %85
  call void @llvm.lifetime.end.p0(i64 24, ptr %28) #7
  call void @llvm.lifetime.end.p0(i64 8, ptr %27) #7
  call void @llvm.lifetime.end.p0(i64 8, ptr %26) #7
  br label %99

99:                                               ; preds = %98
  br label %100

100:                                              ; preds = %99
  %101 = load i64, ptr %17, align 8, !tbaa !9
  %102 = add i64 %101, 1
  store i64 %102, ptr %17, align 8, !tbaa !9
  br label %57

103:                                              ; preds = %62
  br label %104

104:                                              ; preds = %103
  %105 = load ptr, ptr %9, align 8
  %106 = load i32, ptr %105, align 4, !tbaa !13
  call void @__kmpc_for_static_fini(ptr @1, i32 %106)
  call void @llvm.lifetime.end.p0(i64 8, ptr %25) #7
  call void @llvm.lifetime.end.p0(i64 4, ptr %24) #7
  call void @llvm.lifetime.end.p0(i64 8, ptr %23) #7
  call void @llvm.lifetime.end.p0(i64 8, ptr %22) #7
  call void @llvm.lifetime.end.p0(i64 8, ptr %21) #7
  br label %107

107:                                              ; preds = %104, %8
  call void @llvm.lifetime.end.p0(i64 8, ptr %19) #7
  call void @llvm.lifetime.end.p0(i64 8, ptr %18) #7
  call void @llvm.lifetime.end.p0(i64 8, ptr %17) #7
  ret void

108:                                              ; preds = %86, %63
  %109 = landingpad { ptr, i32 }
          catch ptr null
  %110 = extractvalue { ptr, i32 } %109, 0
  call void @__clang_call_terminate(ptr %110) #20
  unreachable
}