; Function Attrs: noinline norecurse nounwind uwtable
define internal void @_ZN5faiss15pack_bitstringsEmmiPKiPhm.omp_outlined(ptr noalias noundef readonly captures(none) %0, ptr noalias readnone captures(none) %1, ptr noundef nonnull readonly align 8 captures(none) dereferenceable(8) %2, ptr noundef nonnull readonly align 8 captures(none) dereferenceable(8) %3, ptr noundef nonnull readonly align 8 captures(none) dereferenceable(8) %4, ptr noundef nonnull readonly align 8 captures(none) dereferenceable(8) %5, ptr noundef nonnull readonly align 8 captures(none) dereferenceable(8) %6, ptr noundef nonnull readonly align 4 captures(none) dereferenceable(4) %7) #4 personality ptr @__gxx_personality_v0 {
  %9 = alloca i64, align 8
  %10 = alloca i64, align 8
  %11 = alloca i64, align 8
  %12 = alloca i32, align 4
  %13 = load i64, ptr %2, align 8, !tbaa !4
  %.not = icmp eq i64 %13, 0
  br i1 %.not, label %66, label %14

14:                                               ; preds = %8
  %15 = add i64 %13, -1
  call void @llvm.lifetime.start.p0(i64 8, ptr nonnull %9) #5
  store i64 0, ptr %9, align 8, !tbaa !4
  call void @llvm.lifetime.start.p0(i64 8, ptr nonnull %10) #5
  store i64 %15, ptr %10, align 8, !tbaa !4
  call void @llvm.lifetime.start.p0(i64 8, ptr nonnull %11) #5
  store i64 1, ptr %11, align 8, !tbaa !4
  call void @llvm.lifetime.start.p0(i64 4, ptr nonnull %12) #5
  store i32 0, ptr %12, align 4, !tbaa !10
  %16 = load i32, ptr %0, align 4, !tbaa !10
  call void @__kmpc_for_static_init_8u(ptr nonnull @1, i32 %16, i32 34, ptr nonnull %12, ptr nonnull %9, ptr nonnull %10, ptr nonnull %11, i64 1, i64 1)
  %17 = load i64, ptr %10, align 8, !tbaa !4
  %18 = call i64 @llvm.umin.i64(i64 %17, i64 %15)
  store i64 %18, ptr %10, align 8, !tbaa !4
  %19 = load i64, ptr %9, align 8, !tbaa !4
  %.not36 = icmp ugt i64 %19, %18
  br i1 %.not36, label %._crit_edge33, label %.lr.ph32.preheader

.lr.ph32.preheader:                               ; preds = %14
  %.pre = load i64, ptr %4, align 8, !tbaa !4
  br label %.lr.ph32

.lr.ph32:                                         ; preds = %.lr.ph32.preheader, %._crit_edge
  %20 = phi i64 [ %29, %._crit_edge ], [ %.pre, %.lr.ph32.preheader ]
  %.02230 = phi i64 [ %30, %._crit_edge ], [ %19, %.lr.ph32.preheader ]
  %21 = load ptr, ptr %3, align 8, !tbaa !36
  %22 = mul i64 %20, %.02230
  %23 = getelementptr inbounds nuw i32, ptr %21, i64 %22
  %24 = load ptr, ptr %5, align 8, !tbaa !22
  %25 = load i64, ptr %6, align 8, !tbaa !4
  %26 = mul i64 %25, %.02230
  %27 = getelementptr inbounds nuw i8, ptr %24, i64 %26
  call void @llvm.memset.p0.i64(ptr align 1 %27, i8 0, i64 %25, i1 false)
  %28 = load i64, ptr %4, align 8, !tbaa !4
  %.not34 = icmp eq i64 %28, 0
  br i1 %.not34, label %._crit_edge, label %.lr.ph

._crit_edge:                                      ; preds = %_ZN5faiss15BitstringWriter5writeEmi.exit, %.lr.ph32
  %29 = phi i64 [ 0, %.lr.ph32 ], [ %64, %_ZN5faiss15BitstringWriter5writeEmi.exit ]
  %30 = add nuw i64 %.02230, 1
  %31 = load i64, ptr %10, align 8, !tbaa !4
  %32 = add i64 %31, 1
  %33 = icmp ult i64 %30, %32
  br i1 %33, label %.lr.ph32, label %._crit_edge33

.lr.ph:                                           ; preds = %.lr.ph32, %_ZN5faiss15BitstringWriter5writeEmi.exit
  %indvars.iv = phi i64 [ %indvars.iv.next, %_ZN5faiss15BitstringWriter5writeEmi.exit ], [ 0, %.lr.ph32 ]
  %.sroa.7.028 = phi i64 [ %.sroa.7.1, %_ZN5faiss15BitstringWriter5writeEmi.exit ], [ 0, %.lr.ph32 ]
  %34 = getelementptr inbounds nuw i32, ptr %23, i64 %indvars.iv
  %35 = load i32, ptr %34, align 4, !tbaa !10
  %36 = sext i32 %35 to i64
  %37 = load i32, ptr %7, align 4, !tbaa !10
  %38 = and i64 %.sroa.7.028, 7
  %39 = trunc nuw nsw i64 %38 to i32
  %40 = sub nuw nsw i32 8, %39
  %.not.i = icmp sgt i32 %37, %40
  br i1 %.not.i, label %49, label %41

41:                                               ; preds = %.lr.ph
  %42 = shl nsw i64 %36, %38
  %43 = lshr i64 %.sroa.7.028, 3
  %44 = getelementptr inbounds nuw i8, ptr %27, i64 %43
  %45 = load i8, ptr %44, align 1, !tbaa !14
  %46 = trunc i64 %42 to i8
  %47 = or i8 %45, %46
  store i8 %47, ptr %44, align 1, !tbaa !14
  %48 = sext i32 %37 to i64
  br label %_ZN5faiss15BitstringWriter5writeEmi.exit

49:                                               ; preds = %.lr.ph
  %50 = lshr i64 %.sroa.7.028, 3
  %51 = shl nsw i64 %36, %38
  %52 = getelementptr inbounds nuw i8, ptr %27, i64 %50
  %53 = load i8, ptr %52, align 1, !tbaa !14
  %54 = trunc i64 %51 to i8
  %55 = or i8 %53, %54
  store i8 %55, ptr %52, align 1, !tbaa !14
  %56 = zext nneg i32 %37 to i64
  %57 = zext nneg i32 %40 to i64
  %58 = lshr i64 %36, %57
  %.not1617.i = icmp eq i64 %58, 0
  br i1 %.not1617.i, label %_ZN5faiss15BitstringWriter5writeEmi.exit, label %.lr.ph.i

.lr.ph.i:                                         ; preds = %49, %.lr.ph.i
  %.0.in19.i = phi i64 [ %.0.i, %.lr.ph.i ], [ %50, %49 ]
  %.01318.i = phi i64 [ %63, %.lr.ph.i ], [ %58, %49 ]
  %.0.i = add nuw nsw i64 %.0.in19.i, 1
  %59 = getelementptr inbounds nuw i8, ptr %27, i64 %.0.i
  %60 = load i8, ptr %59, align 1, !tbaa !14
  %61 = trunc i64 %.01318.i to i8
  %62 = or i8 %60, %61
  store i8 %62, ptr %59, align 1, !tbaa !14
  %63 = lshr i64 %.01318.i, 8
  %.not16.i = icmp samesign ult i64 %.01318.i, 256
  br i1 %.not16.i, label %_ZN5faiss15BitstringWriter5writeEmi.exit, label %.lr.ph.i, !llvm.loop !993

_ZN5faiss15BitstringWriter5writeEmi.exit:         ; preds = %.lr.ph.i, %41, %49
  %.pn = phi i64 [ %56, %49 ], [ %48, %41 ], [ %56, %.lr.ph.i ]
  %.sroa.7.1 = add i64 %.pn, %.sroa.7.028
  %indvars.iv.next = add nuw nsw i64 %indvars.iv, 1
  %64 = load i64, ptr %4, align 8, !tbaa !4
  %65 = icmp ugt i64 %64, %indvars.iv.next
  br i1 %65, label %.lr.ph, label %._crit_edge, !llvm.loop !994

._crit_edge33:                                    ; preds = %._crit_edge, %14
  call void @__kmpc_for_static_fini(ptr nonnull @1, i32 %16)
  call void @llvm.lifetime.end.p0(i64 4, ptr nonnull %12) #5
  call void @llvm.lifetime.end.p0(i64 8, ptr nonnull %11) #5
  call void @llvm.lifetime.end.p0(i64 8, ptr nonnull %10) #5
  call void @llvm.lifetime.end.p0(i64 8, ptr nonnull %9) #5
  br label %66

66:                                               ; preds = %._crit_edge33, %8
  ret void
}